; Function Attrs: nounwind uwtable
define ptr @l___private_Lean_Elab_Print_0__Lean_Elab_Command_printStructure___lambda__8(ptr noundef %0, ptr noundef %1, ptr noundef %2, ptr noundef %3, ptr noundef %4, ptr noundef %5, ptr noundef %6, ptr readnone captures(none) %7, ptr noundef %8, ptr noundef %9, ptr noundef %10, ptr noundef %11, ptr noundef %12, ptr noundef %13, ptr noundef %14) local_unnamed_addr #0 {
  %16 = ptrtoint ptr %1 to i64
  %17 = and i64 %16, 1
  %.not = icmp eq i64 %17, 0
  br i1 %.not, label %18, label %lean_inc.exit36

18:                                               ; preds = %15
  %.val.i = load i32, ptr %1, align 4, !tbaa !8
  %19 = icmp sgt i32 %.val.i, 0
  br i1 %19, label %20, label %22, !prof !13

20:                                               ; preds = %18
  %21 = add nuw i32 %.val.i, 1
  store i32 %21, ptr %1, align 4, !tbaa !8
  br label %lean_inc.exit36

22:                                               ; preds = %18
  %.not.i = icmp eq i32 %.val.i, 0
  br i1 %.not.i, label %lean_inc.exit36, label %23

23:                                               ; preds = %22
  tail call void @lean_inc_ref_cold(ptr noundef nonnull %1) #5
  br label %lean_inc.exit36

lean_inc.exit36:                                  ; preds = %23, %22, %20, %15
  %24 = ptrtoint ptr %0 to i64
  %25 = and i64 %24, 1
  %.not43 = icmp eq i64 %25, 0
  br i1 %.not43, label %26, label %lean_inc.exit35

26:                                               ; preds = %lean_inc.exit36
  %.val.i37 = load i32, ptr %0, align 4, !tbaa !8
  %27 = icmp sgt i32 %.val.i37, 0
  br i1 %27, label %28, label %30, !prof !13

28:                                               ; preds = %26
  %29 = add nuw i32 %.val.i37, 1
  store i32 %29, ptr %0, align 4, !tbaa !8
  br label %lean_inc.exit35

30:                                               ; preds = %26
  %.not.i38 = icmp eq i32 %.val.i37, 0
  br i1 %.not.i38, label %lean_inc.exit35, label %31

31:                                               ; preds = %30
  tail call void @lean_inc_ref_cold(ptr noundef nonnull %0) #5
  br label %lean_inc.exit35

lean_inc.exit35:                                  ; preds = %31, %30, %28, %lean_inc.exit36
  %32 = tail call ptr @l_Lean_Expr_const___override(ptr noundef %0, ptr noundef %1) #5
  %33 = ptrtoint ptr %32 to i64
  %34 = and i64 %33, 1
  %.not44 = icmp eq i64 %34, 0
  br i1 %.not44, label %35, label %lean_inc.exit

35:                                               ; preds = %lean_inc.exit35
  %.val.i40 = load i32, ptr %32, align 4, !tbaa !8
  %36 = icmp sgt i32 %.val.i40, 0
  br i1 %36, label %37, label %39, !prof !13

37:                                               ; preds = %35
  %38 = add nuw i32 %.val.i40, 1
  store i32 %38, ptr %32, align 4, !tbaa !8
  br label %lean_inc.exit

39:                                               ; preds = %35
  %.not.i41 = icmp eq i32 %.val.i40, 0
  br i1 %.not.i41, label %lean_inc.exit, label %40

40:                                               ; preds = %39
  tail call void @lean_inc_ref_cold(ptr noundef nonnull %32) #5
  br label %lean_inc.exit

lean_inc.exit:                                    ; preds = %40, %39, %37, %lean_inc.exit35
  %41 = tail call ptr @l_Lean_mkAppN(ptr noundef %32, ptr noundef %6) #5
  tail call void @lean_inc_heartbeat() #5
  %42 = tail call noalias ptr @mi_malloc_small(i64 noundef 88) #5
  %43 = icmp eq ptr %42, null
  br i1 %43, label %44, label %lean_alloc_closure.exit

44:                                               ; preds = %lean_inc.exit
  tail call void @lean_internal_panic_out_of_memory() #6
  unreachable

lean_alloc_closure.exit:                          ; preds = %lean_inc.exit
  %45 = getelementptr inbounds nuw i8, ptr %42, i64 4
  store i32 1, ptr %42, align 4, !tbaa !8
  store i32 -184549288, ptr %45, align 4
  %46 = getelementptr inbounds nuw i8, ptr %42, i64 8
  store ptr @l___private_Lean_Elab_Print_0__Lean_Elab_Command_printStructure___lambda__7___boxed, ptr %46, align 8, !tbaa !4
  %47 = getelementptr inbounds nuw i8, ptr %42, i64 16
  store i16 16, ptr %47, align 8, !tbaa !15
  %48 = getelementptr inbounds nuw i8, ptr %42, i64 18
  store i16 8, ptr %48, align 2, !tbaa !15
  %49 = getelementptr inbounds nuw i8, ptr %42, i64 24
  store ptr %2, ptr %49, align 8, !tbaa !4
  %50 = getelementptr inbounds nuw i8, ptr %42, i64 32
  store ptr %32, ptr %50, align 8, !tbaa !4
  %51 = getelementptr inbounds nuw i8, ptr %42, i64 40
  store ptr %3, ptr %51, align 8, !tbaa !4
  %52 = getelementptr inbounds nuw i8, ptr %42, i64 48
  store ptr %4, ptr %52, align 8, !tbaa !4
  %53 = getelementptr inbounds nuw i8, ptr %42, i64 56
  store ptr %0, ptr %53, align 8, !tbaa !4
  %54 = getelementptr inbounds nuw i8, ptr %42, i64 64
  store ptr %5, ptr %54, align 8, !tbaa !4
  %55 = getelementptr inbounds nuw i8, ptr %42, i64 72
  store ptr %1, ptr %55, align 8, !tbaa !4
  %56 = getelementptr inbounds nuw i8, ptr %42, i64 80
  store ptr %6, ptr %56, align 8, !tbaa !4
  %57 = load ptr, ptr @l___private_Lean_Elab_Print_0__Lean_Elab_Command_printStructure___lambda__8___closed__2, align 8, !tbaa !4
  %58 = tail call ptr @l_Lean_Meta_withLocalDecl___at___private_Lean_Elab_Term_0__Lean_Elab_Term_elabImplicitLambda_loop___spec__1___rarg(ptr noundef %57, i8 noundef zeroext 0, ptr noundef %41, ptr noundef nonnull %42, i8 noundef zeroext 0, ptr noundef %8, ptr noundef %9, ptr noundef %10, ptr noundef %11, ptr noundef %12, ptr noundef %13, ptr noundef %14) #5
  ret ptr %58
}